target datalayout = "e-m:e-p270:32:32-p271:32:32-p272:64:64-i64:64-i128:128-f80:128-n8:16:32:64-S128"
target triple = "x86_64-pc-linux-gnu"

%struct.pg_compress_specification = type { i32, i32, i32, i32, i8, ptr }
%struct.CompressorState = type { ptr, ptr, ptr, ptr, ptr, %struct.pg_compress_specification, ptr }
%struct.z_stream_s = type { ptr, i32, i64, ptr, i32, i64, ptr, ptr, ptr, ptr, ptr, i32, i64, i64 }

@.str = private unnamed_addr constant [7 x i8] c"1.2.11\00", align 1
@.str.1 = private unnamed_addr constant [45 x i8] c"could not initialize compression library: %s\00", align 1
@.str.2 = private unnamed_addr constant [30 x i8] c"could not uncompress data: %s\00", align 1
@.str.3 = private unnamed_addr constant [40 x i8] c"could not close compression library: %s\00", align 1

; Function Attrs: nounwind uwtable
define internal void @ReadDataFromArchiveGzip(ptr noundef %0, ptr noundef %1) #0 {
  %3 = alloca ptr, align 8
  %4 = alloca ptr, align 8
  %5 = alloca ptr, align 8
  %6 = alloca ptr, align 8
  %7 = alloca i32, align 4
  %8 = alloca i64, align 8
  %9 = alloca ptr, align 8
  %10 = alloca i64, align 8
  store ptr %0, ptr %3, align 8
  store ptr %1, ptr %4, align 8
  call void @llvm.lifetime.start.p0(i64 8, ptr %5) #7
  call void @llvm.lifetime.start.p0(i64 8, ptr %6) #7
  call void @llvm.lifetime.start.p0(i64 4, ptr %7) #7
  store i32 0, ptr %7, align 4
  call void @llvm.lifetime.start.p0(i64 8, ptr %8) #7
  call void @llvm.lifetime.start.p0(i64 8, ptr %9) #7
  call void @llvm.lifetime.start.p0(i64 8, ptr %10) #7
  %11 = call ptr @pg_malloc(i64 noundef 112)
  store ptr %11, ptr %5, align 8
  %12 = load ptr, ptr %5, align 8
  %13 = getelementptr inbounds nuw %struct.z_stream_s, ptr %12, i32 0, i32 8
  store ptr null, ptr %13, align 8
  %14 = load ptr, ptr %5, align 8
  %15 = getelementptr inbounds nuw %struct.z_stream_s, ptr %14, i32 0, i32 9
  store ptr null, ptr %15, align 8
  %16 = load ptr, ptr %5, align 8
  %17 = getelementptr inbounds nuw %struct.z_stream_s, ptr %16, i32 0, i32 10
  store ptr null, ptr %17, align 8
  store i64 4096, ptr %10, align 8
  %18 = load i64, ptr %10, align 8
  %19 = call ptr @pg_malloc(i64 noundef %18)
  store ptr %19, ptr %9, align 8
  %20 = call ptr @pg_malloc(i64 noundef 4097)
  store ptr %20, ptr %6, align 8
  %21 = load ptr, ptr %5, align 8
  %22 = call i32 @inflateInit_(ptr noundef %21, ptr noundef @.str, i32 noundef 112)
  %23 = icmp ne i32 %22, 0
  br i1 %23, label %24, label %31

24:                                               ; preds = %2
  br label %25

25:                                               ; preds = %24
  %26 = load ptr, ptr %5, align 8
  %27 = getelementptr inbounds nuw %struct.z_stream_s, ptr %26, i32 0, i32 6
  %28 = load ptr, ptr %27, align 8
  call void (i32, i32, ptr, ...) @pg_log_generic(i32 noundef 4, i32 noundef 0, ptr noundef @.str.1, ptr noundef %28)
  call void @exit_nicely(i32 noundef 1) #8
  unreachable

29:                                               ; No predecessors!
  br label %30

30:                                               ; preds = %29
  br label %31

31:                                               ; preds = %30, %2
  br label %32

32:                                               ; preds = %87, %31
  %33 = load ptr, ptr %4, align 8
  %34 = getelementptr inbounds nuw %struct.CompressorState, ptr %33, i32 0, i32 3
  %35 = load ptr, ptr %34, align 8
  %36 = load ptr, ptr %3, align 8
  %37 = call i64 %35(ptr noundef %36, ptr noundef %9, ptr noundef %10)
  store i64 %37, ptr %8, align 8
  %38 = icmp ne i64 %37, 0
  br i1 %38, label %39, label %88

39:                                               ; preds = %32
  %40 = load ptr, ptr %9, align 8
  %41 = load ptr, ptr %5, align 8
  %42 = getelementptr inbounds nuw %struct.z_stream_s, ptr %41, i32 0, i32 0
  store ptr %40, ptr %42, align 8
  %43 = load i64, ptr %8, align 8
  %44 = trunc i64 %43 to i32
  %45 = load ptr, ptr %5, align 8
  %46 = getelementptr inbounds nuw %struct.z_stream_s, ptr %45, i32 0, i32 1
  store i32 %44, ptr %46, align 8
  br label %47

47:                                               ; preds = %72, %39
  %48 = load ptr, ptr %5, align 8
  %49 = getelementptr inbounds nuw %struct.z_stream_s, ptr %48, i32 0, i32 1
  %50 = load i32, ptr %49, align 8
  %51 = icmp ugt i32 %50, 0
  br i1 %51, label %52, label %87

52:                                               ; preds = %47
  %53 = load ptr, ptr %6, align 8
  %54 = load ptr, ptr %5, align 8
  %55 = getelementptr inbounds nuw %struct.z_stream_s, ptr %54, i32 0, i32 3
  store ptr %53, ptr %55, align 8
  %56 = load ptr, ptr %5, align 8
  %57 = getelementptr inbounds nuw %struct.z_stream_s, ptr %56, i32 0, i32 4
  store i32 4096, ptr %57, align 8
  %58 = load ptr, ptr %5, align 8
  %59 = call i32 @inflate(ptr noundef %58, i32 noundef 0)
  store i32 %59, ptr %7, align 4
  %60 = load i32, ptr %7, align 4
  %61 = icmp ne i32 %60, 0
  br i1 %61, label %62, label %72

62:                                               ; preds = %52
  %63 = load i32, ptr %7, align 4
  %64 = icmp ne i32 %63, 1
  br i1 %64, label %65, label %72

65:                                               ; preds = %62
  br label %66

66:                                               ; preds = %65
  %67 = load ptr, ptr %5, align 8
  %68 = getelementptr inbounds nuw %struct.z_stream_s, ptr %67, i32 0, i32 6
  %69 = load ptr, ptr %68, align 8
  call void (i32, i32, ptr, ...) @pg_log_generic(i32 noundef 4, i32 noundef 0, ptr noundef @.str.2, ptr noundef %69)
  call void @exit_nicely(i32 noundef 1) #8
  unreachable

70:                                               ; No predecessors!
  br label %71

71:                                               ; preds = %70
  br label %72

72:                                               ; preds = %71, %62, %52
  %73 = load ptr, ptr %6, align 8
  %74 = load ptr, ptr %5, align 8
  %75 = getelementptr inbounds nuw %struct.z_stream_s, ptr %74, i32 0, i32 4
  %76 = load i32, ptr %75, align 8
  %77 = sub i32 4096, %76
  %78 = zext i32 %77 to i64
  %79 = getelementptr inbounds nuw i8, ptr %73, i64 %78
  store i8 0, ptr %79, align 1
  %80 = load ptr, ptr %6, align 8
  %81 = load ptr, ptr %5, align 8
  %82 = getelementptr inbounds nuw %struct.z_stream_s, ptr %81, i32 0, i32 4
  %83 = load i32, ptr %82, align 8
  %84 = sub i32 4096, %83
  %85 = zext i32 %84 to i64
  %86 = load ptr, ptr %3, align 8
  call void @ahwrite(ptr noundef %80, i64 noundef 1, i64 noundef %85, ptr noundef %86)
  br label %47, !llvm.loop !4

87:                                               ; preds = %47
  br label %32, !llvm.loop !6

88:                                               ; preds = %32
  %89 = load ptr, ptr %5, align 8
  %90 = getelementptr inbounds nuw %struct.z_stream_s, ptr %89, i32 0, i32 0
  store ptr null, ptr %90, align 8
  %91 = load ptr, ptr %5, align 8
  %92 = getelementptr inbounds nuw %struct.z_stream_s, ptr %91, i32 0, i32 1
  store i32 0, ptr %92, align 8
  br label %93

93:                                               ; preds = %116, %88
  %94 = load i32, ptr %7, align 4
  %95 = icmp ne i32 %94, 1
  br i1 %95, label %96, label %131

96:                                               ; preds = %93
  %97 = load ptr, ptr %6, align 8
  %98 = load ptr, ptr %5, align 8
  %99 = getelementptr inbounds nuw %struct.z_stream_s, ptr %98, i32 0, i32 3
  store ptr %97, ptr %99, align 8
  %100 = load ptr, ptr %5, align 8
  %101 = getelementptr inbounds nuw %struct.z_stream_s, ptr %100, i32 0, i32 4
  store i32 4096, ptr %101, align 8
  %102 = load ptr, ptr %5, align 8
  %103 = call i32 @inflate(ptr noundef %102, i32 noundef 0)
  store i32 %103, ptr %7, align 4
  %104 = load i32, ptr %7, align 4
  %105 = icmp ne i32 %104, 0
  br i1 %105, label %106, label %116

106:                                              ; preds = %96
  %107 = load i32, ptr %7, align 4
  %108 = icmp ne i32 %107, 1
  br i1 %108, label %109, label %116

109:                                              ; preds = %106
  br label %110

110:                                              ; preds = %109
  %111 = load ptr, ptr %5, align 8
  %112 = getelementptr inbounds nuw %struct.z_stream_s, ptr %111, i32 0, i32 6
  %113 = load ptr, ptr %112, align 8
  call void (i32, i32, ptr, ...) @pg_log_generic(i32 noundef 4, i32 noundef 0, ptr noundef @.str.2, ptr noundef %113)
  call void @exit_nicely(i32 noundef 1) #8
  unreachable

114:                                              ; No predecessors!
  br label %115

115:                                              ; preds = %114
  br label %116

116:                                              ; preds = %115, %106, %96
  %117 = load ptr, ptr %6, align 8
  %118 = load ptr, ptr %5, align 8
  %119 = getelementptr inbounds nuw %struct.z_stream_s, ptr %118, i32 0, i32 4
  %120 = load i32, ptr %119, align 8
  %121 = sub i32 4096, %120
  %122 = zext i32 %121 to i64
  %123 = getelementptr inbounds nuw i8, ptr %117, i64 %122
  store i8 0, ptr %123, align 1
  %124 = load ptr, ptr %6, align 8
  %125 = load ptr, ptr %5, align 8
  %126 = getelementptr inbounds nuw %struct.z_stream_s, ptr %125, i32 0, i32 4
  %127 = load i32, ptr %126, align 8
  %128 = sub i32 4096, %127
  %129 = zext i32 %128 to i64
  %130 = load ptr, ptr %3, align 8
  call void @ahwrite(ptr noundef %124, i64 noundef 1, i64 noundef %129, ptr noundef %130)
  br label %93, !llvm.loop !7

131:                                              ; preds = %93
  %132 = load ptr, ptr %5, align 8
  %133 = call i32 @inflateEnd(ptr noundef %132)
  %134 = icmp ne i32 %133, 0
  br i1 %134, label %135, label %142

135:                                              ; preds = %131
  br label %136

136:                                              ; preds = %135
  %137 = load ptr, ptr %5, align 8
  %138 = getelementptr inbounds nuw %struct.z_stream_s, ptr %137, i32 0, i32 6
  %139 = load ptr, ptr %138, align 8
  call void (i32, i32, ptr, ...) @pg_log_generic(i32 noundef 4, i32 noundef 0, ptr noundef @.str.3, ptr noundef %139)
  call void @exit_nicely(i32 noundef 1) #8
  unreachable

140:                                              ; No predecessors!
  br label %141

141:                                              ; preds = %140
  br label %142

142:                                              ; preds = %141, %131
  %143 = load ptr, ptr %9, align 8
  call void @free(ptr noundef %143) #7
  %144 = load ptr, ptr %6, align 8
  call void @free(ptr noundef %144) #7
  %145 = load ptr, ptr %5, align 8
  call void @free(ptr noundef %145) #7
  call void @llvm.lifetime.end.p0(i64 8, ptr %10) #7
  call void @llvm.lifetime.end.p0(i64 8, ptr %9) #7
  call void @llvm.lifetime.end.p0(i64 8, ptr %8) #7
  call void @llvm.lifetime.end.p0(i64 4, ptr %7) #7
  call void @llvm.lifetime.end.p0(i64 8, ptr %6) #7
  call void @llvm.lifetime.end.p0(i64 8, ptr %5) #7
  ret void
}