; Function Attrs: nounwind uwtable
define internal void @ReadDataFromArchiveGzip(ptr noundef %0, ptr noundef readonly captures(none) %1) #0 {
  %3 = alloca ptr, align 8
  %4 = alloca i64, align 8
  call void @llvm.lifetime.start.p0(i64 8, ptr nonnull %3) #11
  call void @llvm.lifetime.start.p0(i64 8, ptr nonnull %4) #11
  %5 = tail call ptr @pg_malloc(i64 noundef 112) #11
  %6 = getelementptr inbounds nuw i8, ptr %5, i64 64
  tail call void @llvm.memset.p0.i64(ptr noundef nonnull align 8 dereferenceable(24) %6, i8 0, i64 24, i1 false)
  store i64 4096, ptr %4, align 8
  %7 = tail call ptr @pg_malloc(i64 noundef 4096) #11
  store ptr %7, ptr %3, align 8
  %8 = tail call ptr @pg_malloc(i64 noundef 4097) #11
  %9 = tail call i32 @inflateInit_(ptr noundef %5, ptr noundef nonnull @.str, i32 noundef 112) #11
  %.not = icmp eq i32 %9, 0
  br i1 %.not, label %.preheader, label %17

.preheader:                                       ; preds = %2
  %10 = getelementptr inbounds nuw i8, ptr %1, i64 24
  %11 = load ptr, ptr %10, align 8
  %12 = call i64 %11(ptr noundef %0, ptr noundef nonnull %3, ptr noundef nonnull %4) #11
  %.not4552 = icmp eq i64 %12, 0
  br i1 %.not4552, label %._crit_edge.thread, label %.lr.ph54

._crit_edge.thread:                               ; preds = %.preheader
  store ptr null, ptr %5, align 8
  %13 = getelementptr inbounds nuw i8, ptr %5, i64 8
  store i32 0, ptr %13, align 8
  br label %.lr.ph58

.lr.ph54:                                         ; preds = %.preheader
  %14 = getelementptr inbounds nuw i8, ptr %5, i64 8
  %15 = getelementptr inbounds nuw i8, ptr %5, i64 24
  %16 = getelementptr inbounds nuw i8, ptr %5, i64 32
  br label %22

17:                                               ; preds = %2
  %18 = getelementptr inbounds nuw i8, ptr %5, i64 48
  %19 = load ptr, ptr %18, align 8
  tail call void (i32, i32, ptr, ...) @pg_log_generic(i32 noundef 4, i32 noundef 0, ptr noundef nonnull @.str.1, ptr noundef %19) #11
  tail call void @exit_nicely(i32 noundef 1) #12
  unreachable

.loopexit:                                        ; preds = %30, %22
  %.1.lcssa = phi i32 [ %.053, %22 ], [ %26, %30 ]
  %20 = load ptr, ptr %10, align 8
  %21 = call i64 %20(ptr noundef %0, ptr noundef nonnull %3, ptr noundef nonnull %4) #11
  %.not45 = icmp eq i64 %21, 0
  br i1 %.not45, label %._crit_edge, label %22, !llvm.loop !4

22:                                               ; preds = %.lr.ph54, %.loopexit
  %23 = phi i64 [ %12, %.lr.ph54 ], [ %21, %.loopexit ]
  %.053 = phi i32 [ 0, %.lr.ph54 ], [ %.1.lcssa, %.loopexit ]
  %24 = load ptr, ptr %3, align 8
  store ptr %24, ptr %5, align 8
  %25 = trunc i64 %23 to i32
  store i32 %25, ptr %14, align 8
  %.not4851 = icmp eq i32 %25, 0
  br i1 %.not4851, label %.loopexit, label %.lr.ph

.lr.ph:                                           ; preds = %22, %30
  store ptr %8, ptr %15, align 8
  store i32 4096, ptr %16, align 8
  %26 = call i32 @inflate(ptr noundef nonnull %5, i32 noundef 0) #11
  %or.cond = icmp ugt i32 %26, 1
  br i1 %or.cond, label %27, label %30

27:                                               ; preds = %.lr.ph
  %28 = getelementptr inbounds nuw i8, ptr %5, i64 48
  %29 = load ptr, ptr %28, align 8
  call void (i32, i32, ptr, ...) @pg_log_generic(i32 noundef 4, i32 noundef 0, ptr noundef nonnull @.str.2, ptr noundef %29) #11
  call void @exit_nicely(i32 noundef 1) #12
  unreachable

30:                                               ; preds = %.lr.ph
  %31 = load i32, ptr %16, align 8
  %32 = sub i32 4096, %31
  %33 = zext i32 %32 to i64
  %34 = getelementptr inbounds nuw i8, ptr %8, i64 %33
  store i8 0, ptr %34, align 1
  %35 = load i32, ptr %16, align 8
  %36 = sub i32 4096, %35
  %37 = zext i32 %36 to i64
  call void @ahwrite(ptr noundef %8, i64 noundef 1, i64 noundef %37, ptr noundef %0) #11
  %.pr = load i32, ptr %14, align 8
  %.not48 = icmp eq i32 %.pr, 0
  br i1 %.not48, label %.loopexit, label %.lr.ph, !llvm.loop !6

._crit_edge:                                      ; preds = %.loopexit
  %38 = icmp eq i32 %.1.lcssa, 1
  store ptr null, ptr %5, align 8
  %39 = getelementptr inbounds nuw i8, ptr %5, i64 8
  store i32 0, ptr %39, align 8
  br i1 %38, label %._crit_edge59, label %.lr.ph58

.lr.ph58:                                         ; preds = %._crit_edge.thread, %._crit_edge
  %40 = getelementptr inbounds nuw i8, ptr %5, i64 24
  %41 = getelementptr inbounds nuw i8, ptr %5, i64 32
  br label %42

42:                                               ; preds = %.lr.ph58, %47
  store ptr %8, ptr %40, align 8
  store i32 4096, ptr %41, align 8
  %43 = call i32 @inflate(ptr noundef nonnull %5, i32 noundef 0) #11
  %or.cond3 = icmp ugt i32 %43, 1
  br i1 %or.cond3, label %44, label %47

44:                                               ; preds = %42
  %45 = getelementptr inbounds nuw i8, ptr %5, i64 48
  %46 = load ptr, ptr %45, align 8
  call void (i32, i32, ptr, ...) @pg_log_generic(i32 noundef 4, i32 noundef 0, ptr noundef nonnull @.str.2, ptr noundef %46) #11
  call void @exit_nicely(i32 noundef 1) #12
  unreachable

47:                                               ; preds = %42
  %48 = load i32, ptr %41, align 8
  %49 = sub i32 4096, %48
  %50 = zext i32 %49 to i64
  %51 = getelementptr inbounds nuw i8, ptr %8, i64 %50
  store i8 0, ptr %51, align 1
  %52 = load i32, ptr %41, align 8
  %53 = sub i32 4096, %52
  %54 = zext i32 %53 to i64
  call void @ahwrite(ptr noundef %8, i64 noundef 1, i64 noundef %54, ptr noundef %0) #11
  %.not46 = icmp eq i32 %43, 1
  br i1 %.not46, label %._crit_edge59, label %42, !llvm.loop !7

._crit_edge59:                                    ; preds = %47, %._crit_edge
  %55 = call i32 @inflateEnd(ptr noundef nonnull %5) #11
  %.not47 = icmp eq i32 %55, 0
  br i1 %.not47, label %59, label %56

56:                                               ; preds = %._crit_edge59
  %57 = getelementptr inbounds nuw i8, ptr %5, i64 48
  %58 = load ptr, ptr %57, align 8
  call void (i32, i32, ptr, ...) @pg_log_generic(i32 noundef 4, i32 noundef 0, ptr noundef nonnull @.str.3, ptr noundef %58) #11
  call void @exit_nicely(i32 noundef 1) #12
  unreachable

59:                                               ; preds = %._crit_edge59
  %60 = load ptr, ptr %3, align 8
  call void @free(ptr noundef %60) #11
  call void @free(ptr noundef %8) #11
  call void @free(ptr noundef nonnull %5) #11
  call void @llvm.lifetime.end.p0(i64 8, ptr nonnull %4) #11
  call void @llvm.lifetime.end.p0(i64 8, ptr nonnull %3) #11
  ret void
}